target datalayout = "e-m:e-p270:32:32-p271:32:32-p272:64:64-i64:64-i128:128-f80:128-n8:16:32:64-S128"
target triple = "x86_64-unknown-linux-gnu"

%"class.EA::StdC::Stopwatch" = type { i64, i64, i32, float }
%struct.TestObject = type <{ i32, i8, [3 x i8], i64, i32, [4 x i8] }>
%"struct.eastl::ListNodeBase" = type { ptr, ptr }
%"struct.eastl::ListIterator" = type { ptr }
%struct.timespec = type { i64, i64 }
%"struct.eastl::ListNode" = type { %"struct.eastl::ListNodeBase", %struct.TestObject }

@_ZN9Benchmark14gScratchBufferE = external global [1024 x i8], align 16
@.str.58 = private unnamed_addr constant [3 x i8] c"%p\00", align 1

; Function Attrs: mustprogress nounwind uwtable
define linkonce_odr dso_local noundef i64 @_ZN2EA4StdC9Stopwatch17GetStopwatchCycleEv() #4 comdat align 2 {
entry:
  %ts = alloca %struct.timespec, align 8
  %result = alloca i32, align 4
  %nNanoseconds = alloca i64, align 8
  %call = call i32 @clock_gettime(i32 noundef 1, ptr noundef %ts) #9
  store i32 %call, ptr %result, align 4
  %0 = load i32, ptr %result, align 4
  %cmp = icmp eq i32 %0, 22
  br i1 %cmp, label %if.then, label %if.end

if.then:                                          ; preds = %entry
  %call1 = call i32 @clock_gettime(i32 noundef 0, ptr noundef %ts) #9
  store i32 %call1, ptr %result, align 4
  br label %if.end

if.end:                                           ; preds = %if.then, %entry
  %tv_nsec = getelementptr inbounds %struct.timespec, ptr %ts, i32 0, i32 1
  %1 = load i64, ptr %tv_nsec, align 8
  %tv_sec = getelementptr inbounds %struct.timespec, ptr %ts, i32 0, i32 0
  %2 = load i64, ptr %tv_sec, align 8
  %mul = mul i64 %2, 1000000000
  %add = add i64 %1, %mul
  store i64 %add, ptr %nNanoseconds, align 8
  %3 = load i64, ptr %nNanoseconds, align 8
  ret i64 %3
}

; Function Attrs: mustprogress nounwind uwtable
define linkonce_odr dso_local noundef i64 @_ZN2EA4StdC9Stopwatch11GetCPUCycleEv() #4 comdat align 2 {
entry:
  %0 = call i64 @llvm.x86.rdtsc()
  ret i64 %0
}

; Function Attrs: mustprogress uwtable
define linkonce_odr dso_local void @_ZN5eastl8Internal13rotate_helperINS_26bidirectional_iterator_tagELb0EE11rotate_implINS_12ListIteratorI10TestObjectPS6_RS6_EEEET_SA_SA_SA_(ptr noalias sret(%"struct.eastl::ListIterator") align 8 %agg.result, ptr noundef %first, ptr noundef %middle, ptr noundef %last) #0 comdat align 2 {
entry:
  %result.ptr = alloca ptr, align 8
  %first.indirect_addr = alloca ptr, align 8
  %middle.indirect_addr = alloca ptr, align 8
  %last.indirect_addr = alloca ptr, align 8
  %agg.tmp = alloca %"struct.eastl::ListIterator", align 8
  %agg.tmp1 = alloca %"struct.eastl::ListIterator", align 8
  %agg.tmp2 = alloca %"struct.eastl::ListIterator", align 8
  store ptr %agg.result, ptr %result.ptr, align 8
  store ptr %first, ptr %first.indirect_addr, align 8
  store ptr %middle, ptr %middle.indirect_addr, align 8
  store ptr %last, ptr %last.indirect_addr, align 8
  call void @_ZN5eastl12ListIteratorI10TestObjectPS1_RS1_EC2ERKS4_(ptr noundef nonnull align 8 dereferenceable(8) %agg.tmp, ptr noundef nonnull align 8 dereferenceable(8) %first) #9
  call void @_ZN5eastl12ListIteratorI10TestObjectPS1_RS1_EC2ERKS4_(ptr noundef nonnull align 8 dereferenceable(8) %agg.tmp1, ptr noundef nonnull align 8 dereferenceable(8) %middle) #9
  call void @_ZN5eastl12ListIteratorI10TestObjectPS1_RS1_EC2ERKS4_(ptr noundef nonnull align 8 dereferenceable(8) %agg.tmp2, ptr noundef nonnull align 8 dereferenceable(8) %last) #9
  call void @_ZN5eastl8Internal19rotate_general_implINS_12ListIteratorI10TestObjectPS3_RS3_EEEET_S7_S7_S7_(ptr sret(%"struct.eastl::ListIterator") align 8 %agg.result, ptr noundef %agg.tmp, ptr noundef %agg.tmp1, ptr noundef %agg.tmp2)
  ret void
}

; Function Attrs: mustprogress nounwind uwtable
define linkonce_odr dso_local noundef zeroext i1 @_ZN5eastlneI10TestObjectPS1_RS1_EEbRKNS_12ListIteratorIT_T0_T1_EESA_(ptr noundef nonnull align 8 dereferenceable(8) %a, ptr noundef nonnull align 8 dereferenceable(8) %b) #4 comdat {
entry:
  %a.addr = alloca ptr, align 8
  %b.addr = alloca ptr, align 8
  store ptr %a, ptr %a.addr, align 8
  store ptr %b, ptr %b.addr, align 8
  %0 = load ptr, ptr %a.addr, align 8
  %mpNode = getelementptr inbounds %"struct.eastl::ListIterator", ptr %0, i32 0, i32 0
  %1 = load ptr, ptr %mpNode, align 8
  %2 = load ptr, ptr %b.addr, align 8
  %mpNode1 = getelementptr inbounds %"struct.eastl::ListIterator", ptr %2, i32 0, i32 0
  %3 = load ptr, ptr %mpNode1, align 8
  %cmp = icmp ne ptr %1, %3
  ret i1 %cmp
}

; Function Attrs: mustprogress uwtable
define linkonce_odr dso_local void @_ZN2EA4StdC9Stopwatch5StartEv(ptr noundef nonnull align 8 dereferenceable(24) %this) #0 comdat align 2 {
entry:
  %this.addr = alloca ptr, align 8
  store ptr %this, ptr %this.addr, align 8
  %this1 = load ptr, ptr %this.addr, align 8
  %mnStartTime = getelementptr inbounds %"class.EA::StdC::Stopwatch", ptr %this1, i32 0, i32 0
  %0 = load i64, ptr %mnStartTime, align 8
  %tobool = icmp ne i64 %0, 0
  br i1 %tobool, label %if.end6, label %if.then

if.then:                                          ; preds = %entry
  %mnUnits = getelementptr inbounds %"class.EA::StdC::Stopwatch", ptr %this1, i32 0, i32 2
  %1 = load i32, ptr %mnUnits, align 8
  %cmp = icmp eq i32 %1, 1
  br i1 %cmp, label %if.then2, label %if.else

if.then2:                                         ; preds = %if.then
  %call = call noundef i64 @_ZN2EA4StdC9Stopwatch11GetCPUCycleEv()
  %mnStartTime3 = getelementptr inbounds %"class.EA::StdC::Stopwatch", ptr %this1, i32 0, i32 0
  store i64 %call, ptr %mnStartTime3, align 8
  br label %if.end

if.else:                                          ; preds = %if.then
  %call4 = call noundef i64 @_ZN2EA4StdC9Stopwatch17GetStopwatchCycleEv()
  %mnStartTime5 = getelementptr inbounds %"class.EA::StdC::Stopwatch", ptr %this1, i32 0, i32 0
  store i64 %call4, ptr %mnStartTime5, align 8
  br label %if.end

if.end:                                           ; preds = %if.else, %if.then2
  br label %if.end6

if.end6:                                          ; preds = %if.end, %entry
  ret void
}

; Function Attrs: mustprogress nounwind uwtable
define linkonce_odr dso_local noundef nonnull align 8 dereferenceable(20) ptr @_ZNK5eastl12ListIteratorI10TestObjectPS1_RS1_EdeEv(ptr noundef nonnull align 8 dereferenceable(8) %this) #4 comdat align 2 {
entry:
  %this.addr = alloca ptr, align 8
  store ptr %this, ptr %this.addr, align 8
  %this1 = load ptr, ptr %this.addr, align 8
  %mpNode = getelementptr inbounds %"struct.eastl::ListIterator", ptr %this1, i32 0, i32 0
  %0 = load ptr, ptr %mpNode, align 8
  %mValue = getelementptr inbounds %"struct.eastl::ListNode", ptr %0, i32 0, i32 1
  ret ptr %mValue
}

; Function Attrs: mustprogress uwtable
define linkonce_odr dso_local void @_ZN5eastl6rotateINS_12ListIteratorI10TestObjectPS2_RS2_EEEET_S6_S6_S6_(ptr noalias sret(%"struct.eastl::ListIterator") align 8 %agg.result, ptr noundef %first, ptr noundef %middle, ptr noundef %last) #0 comdat {
entry:
  %result.ptr = alloca ptr, align 8
  %first.indirect_addr = alloca ptr, align 8
  %middle.indirect_addr = alloca ptr, align 8
  %last.indirect_addr = alloca ptr, align 8
  %agg.tmp = alloca %"struct.eastl::ListIterator", align 8
  %agg.tmp3 = alloca %"struct.eastl::ListIterator", align 8
  %agg.tmp4 = alloca %"struct.eastl::ListIterator", align 8
  store ptr %agg.result, ptr %result.ptr, align 8
  store ptr %first, ptr %first.indirect_addr, align 8
  store ptr %middle, ptr %middle.indirect_addr, align 8
  store ptr %last, ptr %last.indirect_addr, align 8
  %call = call noundef zeroext i1 @_ZN5eastlneI10TestObjectPS1_RS1_EEbRKNS_12ListIteratorIT_T0_T1_EESA_(ptr noundef nonnull align 8 dereferenceable(8) %middle, ptr noundef nonnull align 8 dereferenceable(8) %first) #9
  br i1 %call, label %if.then, label %if.end5

if.then:                                          ; preds = %entry
  %call1 = call noundef zeroext i1 @_ZN5eastlneI10TestObjectPS1_RS1_EEbRKNS_12ListIteratorIT_T0_T1_EESA_(ptr noundef nonnull align 8 dereferenceable(8) %middle, ptr noundef nonnull align 8 dereferenceable(8) %last) #9
  br i1 %call1, label %if.then2, label %if.end

if.then2:                                         ; preds = %if.then
  call void @_ZN5eastl12ListIteratorI10TestObjectPS1_RS1_EC2ERKS4_(ptr noundef nonnull align 8 dereferenceable(8) %agg.tmp, ptr noundef nonnull align 8 dereferenceable(8) %first) #9
  call void @_ZN5eastl12ListIteratorI10TestObjectPS1_RS1_EC2ERKS4_(ptr noundef nonnull align 8 dereferenceable(8) %agg.tmp3, ptr noundef nonnull align 8 dereferenceable(8) %middle) #9
  call void @_ZN5eastl12ListIteratorI10TestObjectPS1_RS1_EC2ERKS4_(ptr noundef nonnull align 8 dereferenceable(8) %agg.tmp4, ptr noundef nonnull align 8 dereferenceable(8) %last) #9
  call void @_ZN5eastl8Internal13rotate_helperINS_26bidirectional_iterator_tagELb0EE11rotate_implINS_12ListIteratorI10TestObjectPS6_RS6_EEEET_SA_SA_SA_(ptr sret(%"struct.eastl::ListIterator") align 8 %agg.result, ptr noundef %agg.tmp, ptr noundef %agg.tmp3, ptr noundef %agg.tmp4)
  br label %return

if.end:                                           ; preds = %if.then
  call void @_ZN5eastl12ListIteratorI10TestObjectPS1_RS1_EC2ERKS4_(ptr noundef nonnull align 8 dereferenceable(8) %agg.result, ptr noundef nonnull align 8 dereferenceable(8) %first) #9
  br label %return

if.end5:                                          ; preds = %entry
  call void @_ZN5eastl12ListIteratorI10TestObjectPS1_RS1_EC2ERKS4_(ptr noundef nonnull align 8 dereferenceable(8) %agg.result, ptr noundef nonnull align 8 dereferenceable(8) %last) #9
  br label %return

return:                                           ; preds = %if.end5, %if.end, %if.then2
  ret void
}

; Function Attrs: mustprogress nounwind uwtable
define linkonce_odr dso_local void @_ZN5eastl12ListIteratorI10TestObjectPS1_RS1_EC2ERKS4_(ptr noundef nonnull align 8 dereferenceable(8) %this, ptr noundef nonnull align 8 dereferenceable(8) %x) unnamed_addr #4 comdat align 2 {
entry:
  %this.addr = alloca ptr, align 8
  %x.addr = alloca ptr, align 8
  store ptr %this, ptr %this.addr, align 8
  store ptr %x, ptr %x.addr, align 8
  %this1 = load ptr, ptr %this.addr, align 8
  %mpNode = getelementptr inbounds %"struct.eastl::ListIterator", ptr %this1, i32 0, i32 0
  %0 = load ptr, ptr %x.addr, align 8
  %mpNode2 = getelementptr inbounds %"struct.eastl::ListIterator", ptr %0, i32 0, i32 0
  %1 = load ptr, ptr %mpNode2, align 8
  store ptr %1, ptr %mpNode, align 8
  ret void
}

; Function Attrs: mustprogress uwtable
define linkonce_odr dso_local void @_ZN2EA4StdC9Stopwatch7RestartEv(ptr noundef nonnull align 8 dereferenceable(24) %this) #0 comdat align 2 {
entry:
  %this.addr = alloca ptr, align 8
  store ptr %this, ptr %this.addr, align 8
  %this1 = load ptr, ptr %this.addr, align 8
  %mnStartTime = getelementptr inbounds %"class.EA::StdC::Stopwatch", ptr %this1, i32 0, i32 0
  store i64 0, ptr %mnStartTime, align 8
  %mnTotalElapsedTime = getelementptr inbounds %"class.EA::StdC::Stopwatch", ptr %this1, i32 0, i32 1
  store i64 0, ptr %mnTotalElapsedTime, align 8
  call void @_ZN2EA4StdC9Stopwatch5StartEv(ptr noundef nonnull align 8 dereferenceable(24) %this1)
  ret void
}

; Function Attrs: mustprogress uwtable
define internal void @_ZN12_GLOBAL__N_112TestRotateEaIN5eastl12ListIteratorI10TestObjectPS3_RS3_EEEEvRN2EA4StdC9StopwatchET_SB_SB_(ptr noundef nonnull align 8 dereferenceable(24) %stopwatch, ptr noundef %first, ptr noundef %middle, ptr noundef %last) #0 {
entry:
  %stopwatch.addr = alloca ptr, align 8
  %first.indirect_addr = alloca ptr, align 8
  %middle.indirect_addr = alloca ptr, align 8
  %last.indirect_addr = alloca ptr, align 8
  %agg.tmp = alloca %"struct.eastl::ListIterator", align 8
  %agg.tmp1 = alloca %"struct.eastl::ListIterator", align 8
  %agg.tmp2 = alloca %"struct.eastl::ListIterator", align 8
  %tmp = alloca %"struct.eastl::ListIterator", align 8
  store ptr %stopwatch, ptr %stopwatch.addr, align 8
  store ptr %first, ptr %first.indirect_addr, align 8
  store ptr %middle, ptr %middle.indirect_addr, align 8
  store ptr %last, ptr %last.indirect_addr, align 8
  %0 = load ptr, ptr %stopwatch.addr, align 8
  call void @_ZN2EA4StdC9Stopwatch7RestartEv(ptr noundef nonnull align 8 dereferenceable(24) %0)
  call void @_ZN5eastl12ListIteratorI10TestObjectPS1_RS1_EC2ERKS4_(ptr noundef nonnull align 8 dereferenceable(8) %agg.tmp, ptr noundef nonnull align 8 dereferenceable(8) %first) #9
  call void @_ZN5eastl12ListIteratorI10TestObjectPS1_RS1_EC2ERKS4_(ptr noundef nonnull align 8 dereferenceable(8) %agg.tmp1, ptr noundef nonnull align 8 dereferenceable(8) %middle) #9
  call void @_ZN5eastl12ListIteratorI10TestObjectPS1_RS1_EC2ERKS4_(ptr noundef nonnull align 8 dereferenceable(8) %agg.tmp2, ptr noundef nonnull align 8 dereferenceable(8) %last) #9
  call void @_ZN5eastl6rotateINS_12ListIteratorI10TestObjectPS2_RS2_EEEET_S6_S6_S6_(ptr sret(%"struct.eastl::ListIterator") align 8 %tmp, ptr noundef %agg.tmp, ptr noundef %agg.tmp1, ptr noundef %agg.tmp2)
  %1 = load ptr, ptr %stopwatch.addr, align 8
  call void @_ZN2EA4StdC9Stopwatch4StopEv(ptr noundef nonnull align 8 dereferenceable(24) %1)
  %call = call noundef nonnull align 8 dereferenceable(20) ptr @_ZNK5eastl12ListIteratorI10TestObjectPS1_RS1_EdeEv(ptr noundef nonnull align 8 dereferenceable(8) %first) #9
  %call3 = call i32 (ptr, ptr, ...) @sprintf(ptr noundef @_ZN9Benchmark14gScratchBufferE, ptr noundef @.str.58, ptr noundef %call) #9
  ret void
}