; Function Attrs: mustprogress uwtable
define internal fastcc void @_ZN12_GLOBAL__N_112TestRotateEaIN5eastl12ListIteratorI10TestObjectPS3_RS3_EEEEvRN2EA4StdC9StopwatchET_SB_SB_(ptr noundef nonnull align 8 dereferenceable(24) %stopwatch, ptr nocapture noundef readonly %first, ptr nocapture noundef readonly %middle, ptr nocapture noundef readonly %last) unnamed_addr #0 {
entry:
  %agg.tmp.i.i = alloca %"struct.eastl::ListIterator", align 8
  %agg.tmp1.i.i = alloca %"struct.eastl::ListIterator", align 8
  %agg.tmp2.i.i = alloca %"struct.eastl::ListIterator", align 8
  %ts.i.i.i = alloca %struct.timespec, align 8
  %tmp = alloca %"struct.eastl::ListIterator", align 8
  %mnUnits.i.i = getelementptr inbounds i8, ptr %stopwatch, i64 16
  tail call void @llvm.memset.p0.i64(ptr noundef nonnull align 8 dereferenceable(16) %stopwatch, i8 0, i64 16, i1 false)
  %0 = load i32, ptr %mnUnits.i.i, align 8
  %cmp.i.i = icmp eq i32 %0, 1
  br i1 %cmp.i.i, label %if.then2.i.i, label %if.else.i.i

if.then2.i.i:                                     ; preds = %entry
  %1 = tail call noundef i64 @llvm.x86.rdtsc()
  br label %_ZN2EA4StdC9Stopwatch7RestartEv.exit

if.else.i.i:                                      ; preds = %entry
  call void @llvm.lifetime.start.p0(i64 16, ptr nonnull %ts.i.i.i)
  %call.i.i.i = call i32 @clock_gettime(i32 noundef 1, ptr noundef nonnull %ts.i.i.i) #9
  %cmp.i.i.i = icmp eq i32 %call.i.i.i, 22
  br i1 %cmp.i.i.i, label %if.then.i.i.i, label %_ZN2EA4StdC9Stopwatch17GetStopwatchCycleEv.exit.i.i

if.then.i.i.i:                                    ; preds = %if.else.i.i
  %call1.i.i.i = call i32 @clock_gettime(i32 noundef 0, ptr noundef nonnull %ts.i.i.i) #9
  br label %_ZN2EA4StdC9Stopwatch17GetStopwatchCycleEv.exit.i.i

_ZN2EA4StdC9Stopwatch17GetStopwatchCycleEv.exit.i.i: ; preds = %if.then.i.i.i, %if.else.i.i
  %tv_nsec.i.i.i = getelementptr inbounds i8, ptr %ts.i.i.i, i64 8
  %2 = load i64, ptr %tv_nsec.i.i.i, align 8
  %3 = load i64, ptr %ts.i.i.i, align 8
  %mul.i.i.i = mul i64 %3, 1000000000
  %add.i.i.i = add i64 %mul.i.i.i, %2
  call void @llvm.lifetime.end.p0(i64 16, ptr nonnull %ts.i.i.i)
  br label %_ZN2EA4StdC9Stopwatch7RestartEv.exit

_ZN2EA4StdC9Stopwatch7RestartEv.exit:             ; preds = %if.then2.i.i, %_ZN2EA4StdC9Stopwatch17GetStopwatchCycleEv.exit.i.i
  %.sink.i.i = phi i64 [ %1, %if.then2.i.i ], [ %add.i.i.i, %_ZN2EA4StdC9Stopwatch17GetStopwatchCycleEv.exit.i.i ]
  store i64 %.sink.i.i, ptr %stopwatch, align 8
  %4 = load ptr, ptr %first, align 8
  %5 = load ptr, ptr %middle, align 8
  %6 = load ptr, ptr %last, align 8
  call void @llvm.experimental.noalias.scope.decl(metadata !292)
  %cmp.i.not.i = icmp eq ptr %5, %4
  br i1 %cmp.i.not.i, label %if.end5.i, label %if.then.i

if.then.i:                                        ; preds = %_ZN2EA4StdC9Stopwatch7RestartEv.exit
  %cmp.i1.not.i = icmp eq ptr %5, %6
  br i1 %cmp.i1.not.i, label %if.end.i, label %if.then2.i

if.then2.i:                                       ; preds = %if.then.i
  call void @llvm.lifetime.start.p0(i64 8, ptr nonnull %agg.tmp.i.i), !noalias !292
  call void @llvm.lifetime.start.p0(i64 8, ptr nonnull %agg.tmp1.i.i), !noalias !292
  call void @llvm.lifetime.start.p0(i64 8, ptr nonnull %agg.tmp2.i.i), !noalias !292
  store ptr %4, ptr %agg.tmp.i.i, align 8, !noalias !295
  store ptr %5, ptr %agg.tmp1.i.i, align 8, !noalias !295
  store ptr %6, ptr %agg.tmp2.i.i, align 8, !noalias !295
  call void @_ZN5eastl8Internal19rotate_general_implINS_12ListIteratorI10TestObjectPS3_RS3_EEEET_S7_S7_S7_(ptr nonnull sret(%"struct.eastl::ListIterator") align 8 %tmp, ptr noundef nonnull %agg.tmp.i.i, ptr noundef nonnull %agg.tmp1.i.i, ptr noundef nonnull %agg.tmp2.i.i)
  call void @llvm.lifetime.end.p0(i64 8, ptr nonnull %agg.tmp.i.i), !noalias !292
  call void @llvm.lifetime.end.p0(i64 8, ptr nonnull %agg.tmp1.i.i), !noalias !292
  call void @llvm.lifetime.end.p0(i64 8, ptr nonnull %agg.tmp2.i.i), !noalias !292
  br label %_ZN5eastl6rotateINS_12ListIteratorI10TestObjectPS2_RS2_EEEET_S6_S6_S6_.exit

if.end.i:                                         ; preds = %if.then.i
  store ptr %4, ptr %tmp, align 8, !alias.scope !292
  br label %_ZN5eastl6rotateINS_12ListIteratorI10TestObjectPS2_RS2_EEEET_S6_S6_S6_.exit

if.end5.i:                                        ; preds = %_ZN2EA4StdC9Stopwatch7RestartEv.exit
  store ptr %6, ptr %tmp, align 8, !alias.scope !292
  br label %_ZN5eastl6rotateINS_12ListIteratorI10TestObjectPS2_RS2_EEEET_S6_S6_S6_.exit

_ZN5eastl6rotateINS_12ListIteratorI10TestObjectPS2_RS2_EEEET_S6_S6_S6_.exit: ; preds = %if.then2.i, %if.end.i, %if.end5.i
  call void @_ZN2EA4StdC9Stopwatch4StopEv(ptr noundef nonnull align 8 dereferenceable(24) %stopwatch)
  %7 = load ptr, ptr %first, align 8
  %mValue.i = getelementptr inbounds i8, ptr %7, i64 16
  %call3 = call i32 (ptr, ptr, ...) @sprintf(ptr noundef nonnull dereferenceable(1) @_ZN9Benchmark14gScratchBufferE, ptr noundef nonnull dereferenceable(1) @.str.58, ptr noundef nonnull %mValue.i) #9
  ret void
}